target datalayout = "e-m:e-p270:32:32-p271:32:32-p272:64:64-i64:64-i128:128-f80:128-n8:16:32:64-S128"
target triple = "x86_64-pc-linux-gnu"

%struct.ma_allocation_callbacks = type { ptr, ptr, ptr, ptr }
%struct.ma_log_callback = type { ptr, ptr }
%struct.ma_log = type { [4 x %struct.ma_log_callback], i32, %struct.ma_allocation_callbacks, %union.pthread_mutex_t }
%union.pthread_mutex_t = type { %struct.__pthread_mutex_s }
%struct.__pthread_mutex_s = type { i32, i32, i32, i32, i32, i16, i16, %struct.__pthread_internal_list }
%struct.__pthread_internal_list = type { ptr, ptr }
%struct.ma_context = type { %struct.ma_backend_callbacks, i32, ptr, %struct.ma_log, i32, i64, ptr, %struct.ma_allocation_callbacks, %union.pthread_mutex_t, %union.pthread_mutex_t, i32, i32, i32, ptr, %union.anon.36, %union.anon.41 }
%struct.ma_backend_callbacks = type { ptr, ptr, ptr, ptr, ptr, ptr, ptr, ptr, ptr, ptr, ptr, ptr, ptr }
%union.anon.36 = type { %struct.anon.37 }
%struct.anon.37 = type { ptr, ptr, ptr, ptr, ptr, ptr, ptr, ptr, ptr, ptr, ptr, ptr, ptr, ptr, ptr, ptr, ptr, ptr, ptr, ptr, ptr, ptr, ptr, ptr, ptr, ptr, ptr, ptr, ptr, ptr, ptr, ptr, ptr, ptr, ptr, ptr, ptr, ptr, ptr, ptr, ptr, ptr, ptr, ptr, ptr, ptr, ptr, ptr, ptr, ptr, ptr, ptr, ptr, ptr, ptr, ptr, ptr, ptr, ptr, ptr, ptr, ptr, ptr, ptr, ptr, ptr, ptr, %union.pthread_mutex_t, i32 }
%union.anon.41 = type { %struct.anon.42 }
%struct.anon.42 = type { i32 }
%struct.anon.38 = type { ptr, ptr, ptr, ptr, ptr, ptr, ptr, ptr, ptr, ptr, ptr, ptr, ptr, ptr, ptr, ptr, ptr, ptr, ptr, ptr, ptr, ptr, ptr, ptr, ptr, ptr, ptr, ptr, ptr, ptr, ptr, ptr, ptr, ptr, ptr, ptr, ptr, ptr, ptr, ptr, ptr, ptr, ptr, ptr, ptr, ptr, ptr, ptr, ptr, ptr, ptr, ptr, ptr, ptr, ptr, ptr, ptr, ptr, ptr, ptr, ptr, ptr, ptr, ptr, ptr, ptr }
%struct.ma_context_get_device_info_callback_data__pulse = type { ptr, i32, i32 }

; Function Attrs: nounwind uwtable
define internal i32 @ma_result_from_pulse(i32 noundef %0) #0 {
  %2 = alloca i32, align 4
  %3 = alloca i32, align 4
  store i32 %0, ptr %3, align 4, !tbaa !8
  %4 = load i32, ptr %3, align 4, !tbaa !8
  %5 = icmp slt i32 %4, 0
  br i1 %5, label %6, label %7

6:                                                ; preds = %1
  store i32 -1, ptr %2, align 4
  br label %14

7:                                                ; preds = %1
  %8 = load i32, ptr %3, align 4, !tbaa !8
  switch i32 %8, label %13 [
    i32 0, label %9
    i32 1, label %10
    i32 2, label %11
    i32 5, label %12
  ]

9:                                                ; preds = %7
  store i32 0, ptr %2, align 4
  br label %14

10:                                               ; preds = %7
  store i32 -6, ptr %2, align 4
  br label %14

11:                                               ; preds = %7
  store i32 -2, ptr %2, align 4
  br label %14

12:                                               ; preds = %7
  store i32 -204, ptr %2, align 4
  br label %14

13:                                               ; preds = %7
  store i32 -1, ptr %2, align 4
  br label %14

14:                                               ; preds = %13, %12, %11, %10, %9, %6
  %15 = load i32, ptr %2, align 4
  ret i32 %15
}

; Function Attrs: nounwind uwtable
define internal i32 @ma_wait_for_operation__pulse(ptr noundef %0, ptr noundef %1, ptr noundef %2) #0 {
  %4 = alloca i32, align 4
  %5 = alloca ptr, align 8
  %6 = alloca ptr, align 8
  %7 = alloca ptr, align 8
  %8 = alloca i32, align 4
  %9 = alloca i32, align 4
  %10 = alloca i32, align 4
  store ptr %0, ptr %5, align 8, !tbaa !209
  store ptr %1, ptr %6, align 8, !tbaa !25
  store ptr %2, ptr %7, align 8, !tbaa !1735
  call void @llvm.lifetime.start.p0(i64 4, ptr %8) #16
  call void @llvm.lifetime.start.p0(i64 4, ptr %9) #16
  br label %11

11:                                               ; preds = %33, %3
  %12 = load ptr, ptr %5, align 8, !tbaa !209
  %13 = getelementptr inbounds nuw %struct.ma_context, ptr %12, i32 0, i32 14
  %14 = getelementptr inbounds nuw %struct.anon.38, ptr %13, i32 0, i32 31
  %15 = load ptr, ptr %14, align 8, !tbaa !14
  %16 = load ptr, ptr %7, align 8, !tbaa !1735
  %17 = call i32 %15(ptr noundef %16)
  store i32 %17, ptr %9, align 4, !tbaa !8
  %18 = load i32, ptr %9, align 4, !tbaa !8
  %19 = icmp ne i32 %18, 0
  br i1 %19, label %20, label %21

20:                                               ; preds = %11
  br label %34

21:                                               ; preds = %11
  %22 = load ptr, ptr %5, align 8, !tbaa !209
  %23 = getelementptr inbounds nuw %struct.ma_context, ptr %22, i32 0, i32 14
  %24 = getelementptr inbounds nuw %struct.anon.38, ptr %23, i32 0, i32 5
  %25 = load ptr, ptr %24, align 8, !tbaa !14
  %26 = load ptr, ptr %6, align 8, !tbaa !25
  %27 = call i32 %25(ptr noundef %26, i32 noundef 1, ptr noundef null)
  store i32 %27, ptr %8, align 4, !tbaa !8
  %28 = load i32, ptr %8, align 4, !tbaa !8
  %29 = icmp slt i32 %28, 0
  br i1 %29, label %30, label %33

30:                                               ; preds = %21
  %31 = load i32, ptr %8, align 4, !tbaa !8
  %32 = call i32 @ma_result_from_pulse(i32 noundef %31)
  store i32 %32, ptr %4, align 4
  store i32 1, ptr %10, align 4
  br label %35

33:                                               ; preds = %21
  br label %11

34:                                               ; preds = %20
  store i32 0, ptr %4, align 4
  store i32 1, ptr %10, align 4
  br label %35

35:                                               ; preds = %34, %30
  call void @llvm.lifetime.end.p0(i64 4, ptr %9) #16
  call void @llvm.lifetime.end.p0(i64 4, ptr %8) #16
  %36 = load i32, ptr %4, align 4
  ret i32 %36
}

; Function Attrs: nounwind uwtable
define internal i32 @ma_wait_for_operation_and_unref__pulse(ptr noundef %0, ptr noundef %1, ptr noundef %2) #0 {
  %4 = alloca i32, align 4
  %5 = alloca ptr, align 8
  %6 = alloca ptr, align 8
  %7 = alloca ptr, align 8
  %8 = alloca i32, align 4
  %9 = alloca i32, align 4
  store ptr %0, ptr %5, align 8, !tbaa !209
  store ptr %1, ptr %6, align 8, !tbaa !25
  store ptr %2, ptr %7, align 8, !tbaa !1735
  call void @llvm.lifetime.start.p0(i64 4, ptr %8) #16
  %10 = load ptr, ptr %7, align 8, !tbaa !1735
  %11 = icmp eq ptr %10, null
  br i1 %11, label %12, label %13

12:                                               ; preds = %3
  store i32 -2, ptr %4, align 4
  store i32 1, ptr %9, align 4
  br label %24

13:                                               ; preds = %3
  %14 = load ptr, ptr %5, align 8, !tbaa !209
  %15 = load ptr, ptr %6, align 8, !tbaa !25
  %16 = load ptr, ptr %7, align 8, !tbaa !1735
  %17 = call i32 @ma_wait_for_operation__pulse(ptr noundef %14, ptr noundef %15, ptr noundef %16)
  store i32 %17, ptr %8, align 4, !tbaa !8
  %18 = load ptr, ptr %5, align 8, !tbaa !209
  %19 = getelementptr inbounds nuw %struct.ma_context, ptr %18, i32 0, i32 14
  %20 = getelementptr inbounds nuw %struct.anon.38, ptr %19, i32 0, i32 30
  %21 = load ptr, ptr %20, align 8, !tbaa !14
  %22 = load ptr, ptr %7, align 8, !tbaa !1735
  call void %21(ptr noundef %22)
  %23 = load i32, ptr %8, align 4, !tbaa !8
  store i32 %23, ptr %4, align 4
  store i32 1, ptr %9, align 4
  br label %24

24:                                               ; preds = %13, %12
  call void @llvm.lifetime.end.p0(i64 4, ptr %8) #16
  %25 = load i32, ptr %4, align 4
  ret i32 %25
}

; Function Attrs: nounwind uwtable
define internal i32 @ma_context_get_device_info__pulse(ptr noundef %0, i32 noundef %1, ptr noundef %2, ptr noundef %3) #0 {
  %5 = alloca ptr, align 8
  %6 = alloca i32, align 4
  %7 = alloca ptr, align 8
  %8 = alloca ptr, align 8
  %9 = alloca i32, align 4
  %10 = alloca %struct.ma_context_get_device_info_callback_data__pulse, align 8
  %11 = alloca ptr, align 8
  %12 = alloca ptr, align 8
  store ptr %0, ptr %5, align 8, !tbaa !209
  store i32 %1, ptr %6, align 4, !tbaa !8
  store ptr %2, ptr %7, align 8, !tbaa !25
  store ptr %3, ptr %8, align 8, !tbaa !25
  call void @llvm.lifetime.start.p0(i64 4, ptr %9) #16
  store i32 0, ptr %9, align 4, !tbaa !8
  call void @llvm.lifetime.start.p0(i64 16, ptr %10) #16
  call void @llvm.lifetime.start.p0(i64 8, ptr %11) #16
  store ptr null, ptr %11, align 8, !tbaa !1735
  call void @llvm.lifetime.start.p0(i64 8, ptr %12) #16
  store ptr null, ptr %12, align 8, !tbaa !10
  %13 = load ptr, ptr %8, align 8, !tbaa !25
  %14 = getelementptr inbounds nuw %struct.ma_context_get_device_info_callback_data__pulse, ptr %10, i32 0, i32 0
  store ptr %13, ptr %14, align 8, !tbaa !1744
  %15 = getelementptr inbounds nuw %struct.ma_context_get_device_info_callback_data__pulse, ptr %10, i32 0, i32 2
  store i32 0, ptr %15, align 4, !tbaa !1746
  %16 = load ptr, ptr %7, align 8, !tbaa !25
  %17 = icmp ne ptr %16, null
  br i1 %17, label %18, label %21

18:                                               ; preds = %4
  %19 = load ptr, ptr %7, align 8, !tbaa !25
  %20 = getelementptr inbounds [256 x i8], ptr %19, i64 0, i64 0
  store ptr %20, ptr %12, align 8, !tbaa !10
  br label %22

21:                                               ; preds = %4
  store ptr null, ptr %12, align 8, !tbaa !10
  br label %22

22:                                               ; preds = %21, %18
  %23 = load ptr, ptr %5, align 8, !tbaa !209
  %24 = load i32, ptr %6, align 4, !tbaa !8
  %25 = getelementptr inbounds nuw %struct.ma_context_get_device_info_callback_data__pulse, ptr %10, i32 0, i32 1
  %26 = call i32 @ma_context_get_default_device_index__pulse(ptr noundef %23, i32 noundef %24, ptr noundef %25)
  store i32 %26, ptr %9, align 4, !tbaa !8
  %27 = load i32, ptr %6, align 4, !tbaa !8
  %28 = icmp eq i32 %27, 1
  br i1 %28, label %29, label %40

29:                                               ; preds = %22
  %30 = load ptr, ptr %5, align 8, !tbaa !209
  %31 = getelementptr inbounds nuw %struct.ma_context, ptr %30, i32 0, i32 14
  %32 = getelementptr inbounds nuw %struct.anon.38, ptr %31, i32 0, i32 28
  %33 = load ptr, ptr %32, align 8, !tbaa !14
  %34 = load ptr, ptr %5, align 8, !tbaa !209
  %35 = getelementptr inbounds nuw %struct.ma_context, ptr %34, i32 0, i32 14
  %36 = getelementptr inbounds nuw %struct.anon.38, ptr %35, i32 0, i32 63
  %37 = load ptr, ptr %36, align 8, !tbaa !14
  %38 = load ptr, ptr %12, align 8, !tbaa !10
  %39 = call ptr %33(ptr noundef %37, ptr noundef %38, ptr noundef @ma_context_get_device_info_sink_callback__pulse, ptr noundef %10)
  store ptr %39, ptr %11, align 8, !tbaa !1735
  br label %51

40:                                               ; preds = %22
  %41 = load ptr, ptr %5, align 8, !tbaa !209
  %42 = getelementptr inbounds nuw %struct.ma_context, ptr %41, i32 0, i32 14
  %43 = getelementptr inbounds nuw %struct.anon.38, ptr %42, i32 0, i32 29
  %44 = load ptr, ptr %43, align 8, !tbaa !14
  %45 = load ptr, ptr %5, align 8, !tbaa !209
  %46 = getelementptr inbounds nuw %struct.ma_context, ptr %45, i32 0, i32 14
  %47 = getelementptr inbounds nuw %struct.anon.38, ptr %46, i32 0, i32 63
  %48 = load ptr, ptr %47, align 8, !tbaa !14
  %49 = load ptr, ptr %12, align 8, !tbaa !10
  %50 = call ptr %44(ptr noundef %48, ptr noundef %49, ptr noundef @ma_context_get_device_info_source_callback__pulse, ptr noundef %10)
  store ptr %50, ptr %11, align 8, !tbaa !1735
  br label %51

51:                                               ; preds = %40, %29
  %52 = load ptr, ptr %11, align 8, !tbaa !1735
  %53 = icmp ne ptr %52, null
  br i1 %53, label %54, label %62

54:                                               ; preds = %51
  %55 = load ptr, ptr %5, align 8, !tbaa !209
  %56 = load ptr, ptr %5, align 8, !tbaa !209
  %57 = getelementptr inbounds nuw %struct.ma_context, ptr %56, i32 0, i32 14
  %58 = getelementptr inbounds nuw %struct.anon.38, ptr %57, i32 0, i32 62
  %59 = load ptr, ptr %58, align 8, !tbaa !14
  %60 = load ptr, ptr %11, align 8, !tbaa !1735
  %61 = call i32 @ma_wait_for_operation_and_unref__pulse(ptr noundef %55, ptr noundef %59, ptr noundef %60)
  br label %63

62:                                               ; preds = %51
  store i32 -1, ptr %9, align 4, !tbaa !8
  br label %69

63:                                               ; preds = %54
  %64 = getelementptr inbounds nuw %struct.ma_context_get_device_info_callback_data__pulse, ptr %10, i32 0, i32 2
  %65 = load i32, ptr %64, align 4, !tbaa !1746
  %66 = icmp ne i32 %65, 0
  br i1 %66, label %68, label %67

67:                                               ; preds = %63
  store i32 -204, ptr %9, align 4, !tbaa !8
  br label %69

68:                                               ; preds = %63
  br label %69

69:                                               ; preds = %68, %67, %62
  %70 = load i32, ptr %9, align 4, !tbaa !8
  call void @llvm.lifetime.end.p0(i64 8, ptr %12) #16
  call void @llvm.lifetime.end.p0(i64 8, ptr %11) #16
  call void @llvm.lifetime.end.p0(i64 16, ptr %10) #16
  call void @llvm.lifetime.end.p0(i64 4, ptr %9) #16
  ret i32 %70
}