; Function Attrs: nounwind uwtable
define internal range(i32 -204, 1) i32 @ma_context_get_device_info__pulse(ptr noundef readonly captures(none) %0, i32 noundef %1, ptr noundef %2, ptr noundef %3) #7 {
  %5 = alloca %struct.ma_context_get_device_info_callback_data__pulse, align 8
  call void @llvm.lifetime.start.p0(i64 16, ptr nonnull %5) #69
  store ptr %3, ptr %5, align 8, !tbaa !2089
  %6 = getelementptr inbounds nuw i8, ptr %5, i64 12
  store i32 0, ptr %6, align 4, !tbaa !2091
  %7 = getelementptr inbounds nuw i8, ptr %5, i64 8
  %8 = call fastcc i32 @ma_context_get_default_device_index__pulse(ptr noundef %0, i32 noundef %1, ptr noundef %7)
  %9 = icmp eq i32 %1, 1
  %10 = getelementptr inbounds nuw i8, ptr %0, i64 928
  %11 = load ptr, ptr %10, align 8, !tbaa !7
  %. = select i1 %9, i64 648, i64 656
  %ma_context_get_device_info_sink_callback__pulse.ma_context_get_device_info_source_callback__pulse = select i1 %9, ptr @ma_context_get_device_info_sink_callback__pulse, ptr @ma_context_get_device_info_source_callback__pulse
  %12 = getelementptr inbounds nuw i8, ptr %0, i64 %.
  %13 = load ptr, ptr %12, align 8, !tbaa !7
  %14 = call ptr %13(ptr noundef %11, ptr noundef %2, ptr noundef nonnull %ma_context_get_device_info_sink_callback__pulse.ma_context_get_device_info_source_callback__pulse, ptr noundef nonnull %5) #69
  %.not19 = icmp eq ptr %14, null
  br i1 %.not19, label %30, label %15

15:                                               ; preds = %4
  %16 = getelementptr inbounds nuw i8, ptr %0, i64 920
  %17 = load ptr, ptr %16, align 8, !tbaa !7
  %18 = getelementptr inbounds nuw i8, ptr %0, i64 464
  %19 = getelementptr inbounds nuw i8, ptr %0, i64 672
  br label %20

20:                                               ; preds = %23, %15
  %21 = load ptr, ptr %19, align 8, !tbaa !7
  %22 = call i32 %21(ptr noundef nonnull %14) #69
  %.not.i.i = icmp eq i32 %22, 0
  br i1 %.not.i.i, label %23, label %ma_wait_for_operation_and_unref__pulse.exit

23:                                               ; preds = %20
  %24 = load ptr, ptr %18, align 8, !tbaa !7
  %25 = call i32 %24(ptr noundef %17, i32 noundef 1, ptr noundef null) #69
  %26 = icmp slt i32 %25, 0
  br i1 %26, label %ma_wait_for_operation_and_unref__pulse.exit, label %20

ma_wait_for_operation_and_unref__pulse.exit:      ; preds = %20, %23
  %27 = getelementptr inbounds nuw i8, ptr %0, i64 664
  %28 = load ptr, ptr %27, align 8, !tbaa !7
  call void %28(ptr noundef nonnull %14) #69
  %29 = load i32, ptr %6, align 4, !tbaa !2091
  %.not20 = icmp eq i32 %29, 0
  %spec.select = select i1 %.not20, i32 -204, i32 %8
  br label %30

30:                                               ; preds = %ma_wait_for_operation_and_unref__pulse.exit, %4
  %.017 = phi i32 [ -1, %4 ], [ %spec.select, %ma_wait_for_operation_and_unref__pulse.exit ]
  call void @llvm.lifetime.end.p0(i64 16, ptr nonnull %5) #69
  ret i32 %.017
}